; Function Attrs: nounwind uwtable
define dso_local void @sentinelPublishCommand(ptr noundef %0) local_unnamed_addr #0 {
  %2 = getelementptr inbounds nuw i8, ptr %0, i64 96
  %3 = load ptr, ptr %2, align 8, !tbaa !258
  %4 = getelementptr inbounds nuw i8, ptr %3, i64 8
  %5 = load ptr, ptr %4, align 8, !tbaa !259
  %6 = getelementptr inbounds nuw i8, ptr %5, i64 8
  %7 = load ptr, ptr %6, align 8, !tbaa !260
  %8 = tail call i32 @strcmp(ptr noundef nonnull dereferenceable(1) %7, ptr noundef nonnull dereferenceable(19) @.str.159) #34
  %.not = icmp eq i32 %8, 0
  br i1 %.not, label %10, label %9

9:                                                ; preds = %1
  tail call void @addReplyError(ptr noundef nonnull %0, ptr noundef nonnull @.str.403) #30
  br label %38

10:                                               ; preds = %1
  %11 = getelementptr inbounds nuw i8, ptr %3, i64 16
  %12 = load ptr, ptr %11, align 8, !tbaa !259
  %13 = getelementptr inbounds nuw i8, ptr %12, i64 8
  %14 = load ptr, ptr %13, align 8, !tbaa !260
  %15 = getelementptr inbounds i8, ptr %14, i64 -1
  %16 = load i8, ptr %15, align 1, !tbaa !79
  %17 = zext i8 %16 to i32
  %18 = and i32 %17, 7
  switch i32 %18, label %sdslen.exit [
    i32 0, label %19
    i32 1, label %22
    i32 2, label %26
    i32 3, label %30
    i32 4, label %34
  ]

19:                                               ; preds = %10
  %20 = lshr i32 %17, 3
  %21 = zext nneg i32 %20 to i64
  br label %sdslen.exit

22:                                               ; preds = %10
  %23 = getelementptr inbounds i8, ptr %14, i64 -3
  %24 = load i8, ptr %23, align 1, !tbaa !79
  %25 = zext i8 %24 to i64
  br label %sdslen.exit

26:                                               ; preds = %10
  %27 = getelementptr inbounds i8, ptr %14, i64 -5
  %28 = load i16, ptr %27, align 1, !tbaa !204
  %29 = zext i16 %28 to i64
  br label %sdslen.exit

30:                                               ; preds = %10
  %31 = getelementptr inbounds i8, ptr %14, i64 -9
  %32 = load i32, ptr %31, align 1, !tbaa !78
  %33 = zext i32 %32 to i64
  br label %sdslen.exit

34:                                               ; preds = %10
  %35 = getelementptr inbounds i8, ptr %14, i64 -17
  %36 = load i64, ptr %35, align 1, !tbaa !171
  br label %sdslen.exit

sdslen.exit:                                      ; preds = %10, %19, %22, %26, %30, %34
  %.0.i = phi i64 [ %36, %34 ], [ %33, %30 ], [ %29, %26 ], [ %25, %22 ], [ %21, %19 ], [ 0, %10 ]
  %37 = trunc i64 %.0.i to i32
  tail call void @sentinelProcessHelloMessage(ptr noundef nonnull %14, i32 noundef %37)
  tail call void @addReplyLongLong(ptr noundef nonnull %0, i64 noundef 1) #30
  br label %38

38:                                               ; preds = %sdslen.exit, %9
  ret void
}